target datalayout = "e-m:e-p270:32:32-p271:32:32-p272:64:64-i64:64-i128:128-f80:128-n8:16:32:64-S128"
target triple = "x86_64-pc-linux-gnu"

%struct._range = type { i64, i64, i32 }

@alpha_num = dso_local global ptr @.str, align 8
@.str.7 = private unnamed_addr constant [11 x i8] c"hostlist.c\00", align 1
@offset = internal global [5 x i32] zeroinitializer, align 16
@.str.13 = private unnamed_addr constant [47 x i8] c"%s: Too many ranges, can't process entire list\00", align 1
@__func__._add_box_ranges = private unnamed_addr constant [16 x i8] c"_add_box_ranges\00", align 1
@.str.15 = private unnamed_addr constant [40 x i8] c"%s: Can't grow ranges -- already at max\00", align 1
@__func__._grow_ranges = private unnamed_addr constant [13 x i8] c"_grow_ranges\00", align 1

; Function Attrs: nounwind uwtable
define internal i32 @_grow_ranges(ptr noundef %0, ptr noundef %1, i32 noundef %2) #0 {
  %4 = alloca ptr, align 8
  %5 = alloca ptr, align 8
  %6 = alloca i32, align 4
  %7 = alloca i32, align 4
  store ptr %0, ptr %4, align 8
  store ptr %1, ptr %5, align 8
  store i32 %2, ptr %6, align 4
  call void @llvm.lifetime.start.p0(i64 4, ptr %7) #13
  %8 = load ptr, ptr %5, align 8
  %9 = load i32, ptr %8, align 4
  %10 = load i32, ptr %6, align 4
  %11 = icmp sge i32 %9, %10
  br i1 %11, label %12, label %13

12:                                               ; preds = %3
  call void (ptr, ...) @fatal(ptr noundef @.str.15, ptr noundef @__func__._grow_ranges) #15
  unreachable

13:                                               ; preds = %3
  %14 = load ptr, ptr %5, align 8
  %15 = load i32, ptr %14, align 4
  %16 = mul nsw i32 %15, 2
  %17 = add nsw i32 %16, 10
  store i32 %17, ptr %7, align 4
  %18 = load i32, ptr %7, align 4
  %19 = load i32, ptr %6, align 4
  %20 = icmp sgt i32 %18, %19
  br i1 %20, label %21, label %23

21:                                               ; preds = %13
  %22 = load i32, ptr %6, align 4
  store i32 %22, ptr %7, align 4
  br label %23

23:                                               ; preds = %21, %13
  %24 = load ptr, ptr %4, align 8
  %25 = load i32, ptr %7, align 4
  %26 = sext i32 %25 to i64
  %27 = mul i64 24, %26
  %28 = call ptr @slurm_xrecalloc(ptr noundef %24, i64 noundef 1, i64 noundef %27, i1 noundef zeroext false, i1 noundef zeroext false, ptr noundef @.str.7, i32 noundef 1479, ptr noundef @__func__._grow_ranges)
  %29 = load i32, ptr %7, align 4
  %30 = load ptr, ptr %5, align 8
  store i32 %29, ptr %30, align 4
  call void @llvm.lifetime.end.p0(i64 4, ptr %7) #13
  ret i32 1
}

; Function Attrs: nounwind uwtable
define internal i32 @_add_box_ranges(i32 noundef %0, i32 noundef %1, ptr noundef %2, ptr noundef %3, ptr noundef %4, ptr noundef %5, ptr noundef %6, i32 noundef %7, ptr noundef %8, i32 noundef %9) #0 {
  %11 = alloca i32, align 4
  %12 = alloca i32, align 4
  %13 = alloca i32, align 4
  %14 = alloca ptr, align 8
  %15 = alloca ptr, align 8
  %16 = alloca ptr, align 8
  %17 = alloca ptr, align 8
  %18 = alloca ptr, align 8
  %19 = alloca i32, align 4
  %20 = alloca ptr, align 8
  %21 = alloca i32, align 4
  %22 = alloca i32, align 4
  %23 = alloca i32, align 4
  %24 = alloca ptr, align 8
  %25 = alloca i64, align 8
  %26 = alloca i32, align 4
  store i32 %0, ptr %12, align 4
  store i32 %1, ptr %13, align 4
  store ptr %2, ptr %14, align 8
  store ptr %3, ptr %15, align 8
  store ptr %4, ptr %16, align 8
  store ptr %5, ptr %17, align 8
  store ptr %6, ptr %18, align 8
  store i32 %7, ptr %19, align 4
  store ptr %8, ptr %20, align 8
  store i32 %9, ptr %21, align 4
  call void @llvm.lifetime.start.p0(i64 4, ptr %22) #13
  call void @llvm.lifetime.start.p0(i64 4, ptr %23) #13
  %27 = load i32, ptr %13, align 4
  store i32 %27, ptr %23, align 4
  %28 = load ptr, ptr %14, align 8
  %29 = load i32, ptr %12, align 4
  %30 = sext i32 %29 to i64
  %31 = getelementptr inbounds i32, ptr %28, i64 %30
  %32 = load i32, ptr %31, align 4
  %33 = load ptr, ptr %16, align 8
  %34 = load i32, ptr %12, align 4
  %35 = sext i32 %34 to i64
  %36 = getelementptr inbounds i32, ptr %33, i64 %35
  store i32 %32, ptr %36, align 4
  br label %37

37:                                               ; preds = %195, %10
  %38 = load ptr, ptr %16, align 8
  %39 = load i32, ptr %12, align 4
  %40 = sext i32 %39 to i64
  %41 = getelementptr inbounds i32, ptr %38, i64 %40
  %42 = load i32, ptr %41, align 4
  %43 = load ptr, ptr %15, align 8
  %44 = load i32, ptr %12, align 4
  %45 = sext i32 %44 to i64
  %46 = getelementptr inbounds i32, ptr %43, i64 %45
  %47 = load i32, ptr %46, align 4
  %48 = icmp sle i32 %42, %47
  br i1 %48, label %49, label %202

49:                                               ; preds = %37
  %50 = load i32, ptr %23, align 4
  %51 = load ptr, ptr %16, align 8
  %52 = load i32, ptr %12, align 4
  %53 = sext i32 %52 to i64
  %54 = getelementptr inbounds i32, ptr %51, i64 %53
  %55 = load i32, ptr %54, align 4
  %56 = load i32, ptr %12, align 4
  %57 = sext i32 %56 to i64
  %58 = getelementptr inbounds [5 x i32], ptr @offset, i64 0, i64 %57
  %59 = load i32, ptr %58, align 4
  %60 = mul nsw i32 %55, %59
  %61 = add nsw i32 %50, %60
  store i32 %61, ptr %13, align 4
  %62 = load i32, ptr %12, align 4
  %63 = load i32, ptr %21, align 4
  %64 = sub nsw i32 %63, 2
  %65 = icmp eq i32 %62, %64
  br i1 %65, label %66, label %178

66:                                               ; preds = %49
  %67 = load i32, ptr %21, align 4
  %68 = mul nsw i32 %67, 2
  %69 = add nsw i32 %68, 2
  %70 = zext i32 %69 to i64
  %71 = call ptr @llvm.stacksave.p0()
  store ptr %71, ptr %24, align 8
  %72 = alloca i8, i64 %70, align 16
  store i64 %70, ptr %25, align 8
  call void @llvm.memset.p0.i64(ptr align 16 %72, i8 0, i64 %70, i1 false)
  %73 = load ptr, ptr %20, align 8
  %74 = load i32, ptr %73, align 4
  %75 = load i32, ptr %19, align 4
  %76 = icmp eq i32 %74, %75
  br i1 %76, label %77, label %78

77:                                               ; preds = %66
  call void (ptr, ...) @fatal(ptr noundef @.str.13, ptr noundef @__func__._add_box_ranges) #15
  unreachable

78:                                               ; preds = %66
  %79 = load ptr, ptr %20, align 8
  %80 = load i32, ptr %79, align 4
  %81 = load ptr, ptr %18, align 8
  %82 = load i32, ptr %81, align 4
  %83 = icmp sge i32 %80, %82
  br i1 %83, label %84, label %92

84:                                               ; preds = %78
  %85 = load ptr, ptr %17, align 8
  %86 = load ptr, ptr %18, align 8
  %87 = load i32, ptr %19, align 4
  %88 = call i32 @_grow_ranges(ptr noundef %85, ptr noundef %86, i32 noundef %87)
  %89 = icmp ne i32 %88, 0
  br i1 %89, label %91, label %90

90:                                               ; preds = %84
  store i32 0, ptr %11, align 4
  store i32 1, ptr %26, align 4
  br label %174

91:                                               ; preds = %84
  br label %92

92:                                               ; preds = %91, %78
  %93 = load i32, ptr %21, align 4
  %94 = sext i32 %93 to i64
  %95 = getelementptr inbounds i8, ptr %72, i64 %94
  store i8 45, ptr %95, align 1
  store i32 0, ptr %22, align 4
  br label %96

96:                                               ; preds = %129, %92
  %97 = load i32, ptr %22, align 4
  %98 = load i32, ptr %21, align 4
  %99 = sub nsw i32 %98, 1
  %100 = icmp slt i32 %97, %99
  br i1 %100, label %101, label %132

101:                                              ; preds = %96
  %102 = load ptr, ptr @alpha_num, align 8
  %103 = load ptr, ptr %16, align 8
  %104 = load i32, ptr %22, align 4
  %105 = sext i32 %104 to i64
  %106 = getelementptr inbounds i32, ptr %103, i64 %105
  %107 = load i32, ptr %106, align 4
  %108 = sext i32 %107 to i64
  %109 = getelementptr inbounds i8, ptr %102, i64 %108
  %110 = load i8, ptr %109, align 1
  %111 = load i32, ptr %22, align 4
  %112 = sext i32 %111 to i64
  %113 = getelementptr inbounds i8, ptr %72, i64 %112
  store i8 %110, ptr %113, align 1
  %114 = load ptr, ptr @alpha_num, align 8
  %115 = load ptr, ptr %16, align 8
  %116 = load i32, ptr %22, align 4
  %117 = sext i32 %116 to i64
  %118 = getelementptr inbounds i32, ptr %115, i64 %117
  %119 = load i32, ptr %118, align 4
  %120 = sext i32 %119 to i64
  %121 = getelementptr inbounds i8, ptr %114, i64 %120
  %122 = load i8, ptr %121, align 1
  %123 = load i32, ptr %21, align 4
  %124 = load i32, ptr %22, align 4
  %125 = add nsw i32 %123, %124
  %126 = add nsw i32 %125, 1
  %127 = sext i32 %126 to i64
  %128 = getelementptr inbounds i8, ptr %72, i64 %127
  store i8 %122, ptr %128, align 1
  br label %129

129:                                              ; preds = %101
  %130 = load i32, ptr %22, align 4
  %131 = add nsw i32 %130, 1
  store i32 %131, ptr %22, align 4
  br label %96, !llvm.loop !74

132:                                              ; preds = %96
  %133 = load ptr, ptr @alpha_num, align 8
  %134 = load ptr, ptr %14, align 8
  %135 = load i32, ptr %22, align 4
  %136 = sext i32 %135 to i64
  %137 = getelementptr inbounds i32, ptr %134, i64 %136
  %138 = load i32, ptr %137, align 4
  %139 = sext i32 %138 to i64
  %140 = getelementptr inbounds i8, ptr %133, i64 %139
  %141 = load i8, ptr %140, align 1
  %142 = load i32, ptr %22, align 4
  %143 = sext i32 %142 to i64
  %144 = getelementptr inbounds i8, ptr %72, i64 %143
  store i8 %141, ptr %144, align 1
  %145 = load ptr, ptr @alpha_num, align 8
  %146 = load ptr, ptr %15, align 8
  %147 = load i32, ptr %22, align 4
  %148 = sext i32 %147 to i64
  %149 = getelementptr inbounds i32, ptr %146, i64 %148
  %150 = load i32, ptr %149, align 4
  %151 = sext i32 %150 to i64
  %152 = getelementptr inbounds i8, ptr %145, i64 %151
  %153 = load i8, ptr %152, align 1
  %154 = load i32, ptr %21, align 4
  %155 = load i32, ptr %22, align 4
  %156 = add nsw i32 %154, %155
  %157 = add nsw i32 %156, 1
  %158 = sext i32 %157 to i64
  %159 = getelementptr inbounds i8, ptr %72, i64 %158
  store i8 %153, ptr %159, align 1
  %160 = load ptr, ptr %17, align 8
  %161 = load ptr, ptr %160, align 8
  %162 = load ptr, ptr %20, align 8
  %163 = load i32, ptr %162, align 4
  %164 = sext i32 %163 to i64
  %165 = getelementptr inbounds %struct._range, ptr %161, i64 %164
  %166 = load i32, ptr %21, align 4
  %167 = call i32 @_parse_single_range(ptr noundef %72, ptr noundef %165, i32 noundef %166)
  %168 = icmp ne i32 %167, 0
  br i1 %168, label %170, label %169

169:                                              ; preds = %132
  store i32 0, ptr %11, align 4
  store i32 1, ptr %26, align 4
  br label %174

170:                                              ; preds = %132
  %171 = load ptr, ptr %20, align 8
  %172 = load i32, ptr %171, align 4
  %173 = add nsw i32 %172, 1
  store i32 %173, ptr %171, align 4
  store i32 0, ptr %26, align 4
  br label %174

174:                                              ; preds = %170, %169, %90
  %175 = load ptr, ptr %24, align 8
  call void @llvm.stackrestore.p0(ptr %175)
  %176 = load i32, ptr %26, align 4
  switch i32 %176, label %203 [
    i32 0, label %177
  ]

177:                                              ; preds = %174
  br label %194

178:                                              ; preds = %49
  %179 = load i32, ptr %12, align 4
  %180 = add nsw i32 %179, 1
  %181 = load i32, ptr %13, align 4
  %182 = load ptr, ptr %14, align 8
  %183 = load ptr, ptr %15, align 8
  %184 = load ptr, ptr %16, align 8
  %185 = load ptr, ptr %17, align 8
  %186 = load ptr, ptr %18, align 8
  %187 = load i32, ptr %19, align 4
  %188 = load ptr, ptr %20, align 8
  %189 = load i32, ptr %21, align 4
  %190 = call i32 @_add_box_ranges(i32 noundef %180, i32 noundef %181, ptr noundef %182, ptr noundef %183, ptr noundef %184, ptr noundef %185, ptr noundef %186, i32 noundef %187, ptr noundef %188, i32 noundef %189)
  %191 = icmp ne i32 %190, 0
  br i1 %191, label %193, label %192

192:                                              ; preds = %178
  store i32 0, ptr %11, align 4
  store i32 1, ptr %26, align 4
  br label %203

193:                                              ; preds = %178
  br label %194

194:                                              ; preds = %193, %177
  br label %195

195:                                              ; preds = %194
  %196 = load ptr, ptr %16, align 8
  %197 = load i32, ptr %12, align 4
  %198 = sext i32 %197 to i64
  %199 = getelementptr inbounds i32, ptr %196, i64 %198
  %200 = load i32, ptr %199, align 4
  %201 = add nsw i32 %200, 1
  store i32 %201, ptr %199, align 4
  br label %37, !llvm.loop !75

202:                                              ; preds = %37
  store i32 1, ptr %11, align 4
  store i32 1, ptr %26, align 4
  br label %203

203:                                              ; preds = %202, %192, %174
  call void @llvm.lifetime.end.p0(i64 4, ptr %23) #13
  call void @llvm.lifetime.end.p0(i64 4, ptr %22) #13
  %204 = load i32, ptr %11, align 4
  ret i32 %204
}