; Function Attrs: nounwind uwtable
define internal fastcc noundef range(i32 0, 2) i32 @_add_box_ranges(i32 noundef %0, i32 noundef %1, ptr noundef nonnull readonly captures(none) %2, ptr noundef nonnull readonly captures(none) %3, ptr noundef nonnull captures(none) %4, ptr noundef nonnull %5, ptr noundef nonnull captures(none) %6, ptr noundef nonnull captures(none) %7, i32 noundef range(i32 2, -2147483648) %8) unnamed_addr #0 {
  %10 = sext i32 %0 to i64
  %11 = getelementptr inbounds i32, ptr %2, i64 %10
  %12 = load i32, ptr %11, align 4
  %13 = getelementptr inbounds i32, ptr %4, i64 %10
  %14 = getelementptr inbounds i32, ptr %3, i64 %10
  store i32 %12, ptr %13, align 4
  %15 = load i32, ptr %14, align 4
  %.not71 = icmp sgt i32 %12, %15
  br i1 %.not71, label %.loopexit, label %.lr.ph74

.lr.ph74:                                         ; preds = %9
  %16 = add nsw i32 %8, -2
  %17 = icmp eq i32 %0, %16
  %18 = getelementptr inbounds [5 x i32], ptr @offset, i64 0, i64 %10
  %19 = add nsw i32 %0, 1
  %20 = shl nuw nsw i32 %8, 1
  %21 = add nuw nsw i32 %20, 2
  %22 = zext nneg i32 %21 to i64
  %23 = zext nneg i32 %8 to i64
  br i1 %17, label %.lr.ph74.split.us.preheader, label %.lr.ph74.split

.lr.ph74.split.us.preheader:                      ; preds = %.lr.ph74
  %24 = add nsw i32 %8, -1
  %wide.trip.count = zext nneg i32 %24 to i64
  %.phi.trans.insert89 = getelementptr inbounds nuw i32, ptr %2, i64 %wide.trip.count
  %.phi.trans.insert = getelementptr inbounds nuw i32, ptr %3, i64 %wide.trip.count
  %25 = add nuw nsw i32 %24, %8
  %26 = zext nneg i32 %25 to i64
  br label %.lr.ph74.split.us

.lr.ph74.split.us:                                ; preds = %.lr.ph74.split.us.preheader, %52
  %27 = call ptr @llvm.stacksave.p0()
  %28 = alloca i8, i64 %22, align 16
  call void @llvm.memset.p0.i64(ptr noundef nonnull align 16 dereferenceable(1) %28, i8 0, i64 %22, i1 false)
  %29 = load i32, ptr %7, align 4
  %30 = icmp eq i32 %29, 262144
  br i1 %30, label %.split.us, label %31

31:                                               ; preds = %.lr.ph74.split.us
  %32 = load i32, ptr %6, align 4
  %.not66.us = icmp slt i32 %29, %32
  br i1 %.not66.us, label %.lr.ph.us, label %33

33:                                               ; preds = %31
  %34 = icmp sgt i32 %32, 262143
  br i1 %34, label %.split79.us, label %_grow_ranges.exit.us

_grow_ranges.exit.us:                             ; preds = %33
  %35 = shl nsw i32 %32, 1
  %36 = add nsw i32 %35, 10
  %37 = icmp sgt i32 %32, 131067
  %spec.select.i.us = select i1 %37, i32 262144, i32 %36
  %38 = sext i32 %spec.select.i.us to i64
  %39 = mul nsw i64 %38, 24
  %40 = call ptr @slurm_xrecalloc(ptr noundef nonnull %5, i64 noundef 1, i64 noundef %39, i1 noundef zeroext false, i1 noundef zeroext false, ptr noundef nonnull @.str.7, i32 noundef 1479, ptr noundef nonnull @__func__._grow_ranges) #22
  store i32 %spec.select.i.us, ptr %6, align 4
  br label %.lr.ph.us

._crit_edge.us:                                   ; preds = %58
  %.pre90 = load i32, ptr %.phi.trans.insert89, align 4
  %.phi.trans.insert91 = sext i32 %.pre90 to i64
  %.phi.trans.insert92 = getelementptr inbounds i8, ptr %66, i64 %.phi.trans.insert91
  %.pre93 = load i8, ptr %.phi.trans.insert92, align 1
  %.pre88 = load i32, ptr %.phi.trans.insert, align 4
  %41 = getelementptr inbounds nuw i8, ptr %28, i64 %wide.trip.count
  store i8 %.pre93, ptr %41, align 1
  %42 = sext i32 %.pre88 to i64
  %43 = getelementptr inbounds i8, ptr %66, i64 %42
  %44 = load i8, ptr %43, align 1
  %45 = getelementptr inbounds nuw i8, ptr %28, i64 %26
  %46 = getelementptr inbounds nuw i8, ptr %45, i64 1
  store i8 %44, ptr %46, align 1
  %47 = load ptr, ptr %5, align 8
  %48 = load i32, ptr %7, align 4
  %49 = sext i32 %48 to i64
  %50 = getelementptr inbounds %struct._range, ptr %47, i64 %49
  %51 = call fastcc i32 @_parse_single_range(ptr noundef %28, ptr noundef %50, i32 noundef %8)
  %.not67.not.us = icmp eq i32 %51, 0
  br i1 %.not67.not.us, label %.critedge, label %52

52:                                               ; preds = %._crit_edge.us
  %53 = load i32, ptr %7, align 4
  %54 = add nsw i32 %53, 1
  store i32 %54, ptr %7, align 4
  call void @llvm.stackrestore.p0(ptr %27)
  %55 = load i32, ptr %13, align 4
  %56 = add nsw i32 %55, 1
  store i32 %56, ptr %13, align 4
  %57 = load i32, ptr %14, align 4
  %.not.us.not = icmp slt i32 %55, %57
  br i1 %.not.us.not, label %.lr.ph74.split.us, label %.loopexit, !llvm.loop !76

58:                                               ; preds = %.lr.ph.us, %58
  %indvars.iv = phi i64 [ 0, %.lr.ph.us ], [ %indvars.iv.next, %58 ]
  %59 = getelementptr inbounds nuw i32, ptr %4, i64 %indvars.iv
  %60 = load i32, ptr %59, align 4
  %61 = sext i32 %60 to i64
  %62 = getelementptr inbounds i8, ptr %66, i64 %61
  %63 = load i8, ptr %62, align 1
  %64 = getelementptr inbounds nuw i8, ptr %28, i64 %indvars.iv
  store i8 %63, ptr %64, align 1
  %gep = getelementptr inbounds nuw i8, ptr %invariant.gep, i64 %indvars.iv
  store i8 %63, ptr %gep, align 1
  %indvars.iv.next = add nuw nsw i64 %indvars.iv, 1
  %exitcond.not = icmp eq i64 %indvars.iv.next, %wide.trip.count
  br i1 %exitcond.not, label %._crit_edge.us, label %58, !llvm.loop !77

.lr.ph.us:                                        ; preds = %31, %_grow_ranges.exit.us
  %65 = getelementptr inbounds nuw i8, ptr %28, i64 %23
  store i8 45, ptr %65, align 1
  %invariant.gep.us = getelementptr inbounds nuw i8, ptr %28, i64 1
  %66 = load ptr, ptr @alpha_num, align 8
  %invariant.gep = getelementptr inbounds nuw i8, ptr %invariant.gep.us, i64 %23
  br label %58

.lr.ph74.split:                                   ; preds = %.lr.ph74, %71
  %storemerge72 = phi i32 [ %73, %71 ], [ %12, %.lr.ph74 ]
  %67 = load i32, ptr %18, align 4
  %68 = mul nsw i32 %67, %storemerge72
  %69 = add nsw i32 %68, %1
  %70 = tail call fastcc i32 @_add_box_ranges(i32 noundef %19, i32 noundef %69, ptr noundef %2, ptr noundef %3, ptr noundef %4, ptr noundef %5, ptr noundef %6, ptr noundef %7, i32 noundef %8)
  %.not65 = icmp eq i32 %70, 0
  br i1 %.not65, label %.loopexit, label %71

.split.us:                                        ; preds = %.lr.ph74.split.us
  call void (ptr, ...) @fatal(ptr noundef nonnull @.str.13, ptr noundef nonnull @__func__._add_box_ranges) #25
  unreachable

.split79.us:                                      ; preds = %33
  call void (ptr, ...) @fatal(ptr noundef nonnull @.str.15, ptr noundef nonnull @__func__._grow_ranges) #25
  unreachable

71:                                               ; preds = %.lr.ph74.split
  %72 = load i32, ptr %13, align 4
  %73 = add nsw i32 %72, 1
  store i32 %73, ptr %13, align 4
  %74 = load i32, ptr %14, align 4
  %.not.not = icmp slt i32 %72, %74
  br i1 %.not.not, label %.lr.ph74.split, label %.loopexit, !llvm.loop !76

.critedge:                                        ; preds = %._crit_edge.us
  call void @llvm.stackrestore.p0(ptr %27)
  br label %.loopexit

.loopexit:                                        ; preds = %.lr.ph74.split, %71, %52, %9, %.critedge
  %.2 = phi i32 [ 0, %.critedge ], [ 1, %9 ], [ 1, %52 ], [ 0, %.lr.ph74.split ], [ 1, %71 ]
  ret i32 %.2
}